; Function Attrs: nofree norecurse nosync nounwind memory(argmem: read) uwtable
define hidden ptr @lexbor_str_data_find_uppercase(ptr noundef readonly %0, i64 noundef %1) local_unnamed_addr #8 {
  br label %3

3:                                                ; preds = %4, %2
  %.0 = phi i64 [ %1, %2 ], [ %5, %4 ]
  %.not = icmp eq i64 %.0, 0
  br i1 %.not, label %.split.loop.exit, label %4

4:                                                ; preds = %3
  %5 = add i64 %.0, -1
  %6 = getelementptr inbounds i8, ptr %0, i64 %5
  %7 = load i8, ptr %6, align 1
  %8 = zext i8 %7 to i64
  %9 = getelementptr inbounds [256 x i8], ptr @lexbor_str_res_map_uppercase, i64 0, i64 %8
  %10 = load i8, ptr %9, align 1
  %11 = icmp eq i8 %7, %10
  br i1 %11, label %.split.loop.exit.split.loop.exit11, label %3

.split.loop.exit.split.loop.exit11:               ; preds = %4
  %12 = getelementptr inbounds i8, ptr %0, i64 %5
  br label %.split.loop.exit

.split.loop.exit:                                 ; preds = %3, %.split.loop.exit.split.loop.exit11
  %.08 = phi ptr [ %12, %.split.loop.exit.split.loop.exit11 ], [ null, %3 ]
  ret ptr %.08
}